; Function Attrs: mustprogress nounwind uwtable
define hidden range(i32 -6542, 1) i32 @__unw_get_fpreg(ptr noundef %0, i32 noundef %1, ptr noundef %2) #0 {
  %.b1.i = load i1, ptr @_ZZ7logAPIsE7checked, align 1
  br i1 %.b1.i, label %._crit_edge.i, label %logAPIs.exit

._crit_edge.i:                                    ; preds = %3
  %.pre.i = load i8, ptr @_ZZ7logAPIsE3log, align 1, !tbaa !6, !range !10
  %4 = trunc nuw i8 %.pre.i to i1
  br i1 %4, label %8, label %13

logAPIs.exit:                                     ; preds = %3
  %5 = tail call ptr @getenv(ptr noundef nonnull @.str.15) #15
  %6 = icmp ne ptr %5, null
  %7 = zext i1 %6 to i8
  store i8 %7, ptr @_ZZ7logAPIsE3log, align 1, !tbaa !6
  store i1 true, ptr @_ZZ7logAPIsE7checked, align 1
  br i1 %6, label %8, label %13

8:                                                ; preds = %._crit_edge.i, %logAPIs.exit
  %9 = load ptr, ptr @stderr, align 8, !tbaa !11
  %10 = tail call i32 (ptr, ptr, ...) @fprintf(ptr noundef %9, ptr noundef nonnull @.str.3, ptr noundef %0, i32 noundef %1, ptr noundef %2) #16
  %11 = load ptr, ptr @stderr, align 8, !tbaa !11
  %12 = tail call i32 @fflush(ptr noundef %11)
  br label %13

13:                                               ; preds = %._crit_edge.i, %logAPIs.exit, %8
  %14 = load ptr, ptr %0, align 8, !tbaa !14
  %15 = getelementptr inbounds nuw i8, ptr %14, i64 40
  %16 = load ptr, ptr %15, align 8
  %17 = tail call noundef zeroext i1 %16(ptr noundef nonnull align 8 dereferenceable(8) %0, i32 noundef %1) #15
  br i1 %17, label %18, label %23

18:                                               ; preds = %13
  %19 = load ptr, ptr %0, align 8, !tbaa !14
  %20 = getelementptr inbounds nuw i8, ptr %19, i64 48
  %21 = load ptr, ptr %20, align 8
  %22 = tail call noundef double %21(ptr noundef nonnull align 8 dereferenceable(8) %0, i32 noundef %1) #15
  store double %22, ptr %2, align 8, !tbaa !23
  br label %23

23:                                               ; preds = %13, %18
  %.0 = phi i32 [ 0, %18 ], [ -6542, %13 ]
  ret i32 %.0
}